target datalayout = "e-m:e-p270:32:32-p271:32:32-p272:64:64-i64:64-i128:128-f80:128-n8:16:32:64-S128"
target triple = "x86_64-pc-linux-gnu"

%class.ExtArgTimestamp = type { %class.ExtcapArgument, %class.QDateTime, ptr }
%class.ExtcapArgument = type { %class.QObject, %class.QList, ptr, ptr, i32, %class.QString }
%class.QObject = type { ptr, %class.QScopedPointer }
%class.QScopedPointer = type { ptr }
%class.QList = type { %struct.QArrayDataPointer }
%struct.QArrayDataPointer = type { ptr, ptr, i64 }
%class.QString = type { %struct.QArrayDataPointer.0 }
%struct.QArrayDataPointer.0 = type { ptr, ptr, i64 }
%class.QDateTime = type { %"union.QDateTime::Data" }
%"union.QDateTime::Data" = type { ptr }

@_ZTV15ExtArgTimestamp = external unnamed_addr constant { [26 x ptr] }, align 8

; Function Attrs: mustprogress null_pointer_is_valid sspstrong uwtable
define void @_ZN15ExtArgTimestampC2EP11_extcap_argP7QObject(ptr noundef align 8 dereferenceable_or_null(104) %0, ptr noundef %1, ptr noundef %2) unnamed_addr #0 align 2 {
  %4 = alloca ptr, align 8
  %5 = alloca ptr, align 8
  %6 = alloca ptr, align 8
  store ptr %0, ptr %4, align 8
  store ptr %1, ptr %5, align 8
  store ptr %2, ptr %6, align 8
  %7 = load ptr, ptr %4, align 8
  %8 = load ptr, ptr %5, align 8
  %9 = load ptr, ptr %6, align 8
  call void @_ZN14ExtcapArgumentC2EP11_extcap_argP7QObject(ptr noundef align 8 dereferenceable_or_null(88) %7, ptr noundef %8, ptr noundef %9)
  store ptr getelementptr inbounds inrange(-16, 192) ({ [26 x ptr] }, ptr @_ZTV15ExtArgTimestamp, i32 0, i32 0, i32 2), ptr %7, align 8
  %10 = getelementptr inbounds nuw %class.ExtArgTimestamp, ptr %7, i32 0, i32 1
  call void @_ZN9QDateTimeC1Ev(ptr noundef align 8 dereferenceable_or_null(8) %10) #23
  %11 = getelementptr inbounds nuw %class.ExtArgTimestamp, ptr %7, i32 0, i32 2
  store ptr null, ptr %11, align 8
  ret void
}