; Function Attrs: mustprogress null_pointer_is_valid sspstrong uwtable
define void @_ZN15ExtArgTimestampC2EP11_extcap_argP7QObject(ptr noundef align 8 dereferenceable_or_null(104) %0, ptr noundef %1, ptr noundef %2) unnamed_addr #0 align 2 {
  tail call void @_ZN14ExtcapArgumentC2EP11_extcap_argP7QObject(ptr noundef align 8 dereferenceable_or_null(88) %0, ptr noundef %1, ptr noundef %2)
  store ptr getelementptr inbounds nuw inrange(-16, 192) (i8, ptr @_ZTV15ExtArgTimestamp, i64 16), ptr %0, align 8
  %4 = getelementptr inbounds nuw i8, ptr %0, i64 88
  tail call void @_ZN9QDateTimeC1Ev(ptr noundef nonnull align 8 dereferenceable_or_null(8) %4) #26
  %5 = getelementptr inbounds nuw i8, ptr %0, i64 96
  store ptr null, ptr %5, align 8
  ret void
}